; Function Attrs: mustprogress uwtable
define hidden noundef range(i32 2, 6) i32 @_ZN4cvc58internal6theory9datatypes15TheoryDatatypes17getEqualityStatusENS0_12NodeTemplateILb0EEES5_(ptr noundef nonnull readonly align 8 captures(none) dereferenceable(2000) %0, ptr noundef readonly captures(none) %1, ptr noundef readonly captures(none) %2) unnamed_addr #3 align 2 personality ptr @__gxx_personality_v0 {
  %4 = alloca %"class.cvc5::internal::NodeTemplate.748", align 8
  %5 = alloca %"class.cvc5::internal::NodeTemplate.748", align 8
  %6 = alloca %"class.cvc5::internal::NodeTemplate.748", align 8
  %7 = alloca %"class.cvc5::internal::NodeTemplate.748", align 8
  %8 = getelementptr inbounds nuw i8, ptr %0, i64 80
  %9 = load ptr, ptr %8, align 8, !tbaa !131
  %10 = load ptr, ptr %1, align 8, !tbaa !358
  store ptr %10, ptr %4, align 8, !tbaa !358
  %11 = load ptr, ptr %2, align 8, !tbaa !358
  store ptr %11, ptr %5, align 8, !tbaa !358
  %12 = call noundef zeroext i1 @_ZNK4cvc58internal6theory2eq14EqualityEngine8areEqualENS0_12NodeTemplateILb0EEES5_(ptr noundef nonnull align 8 dereferenceable(1784) %9, ptr noundef nonnull %4, ptr noundef nonnull %5)
  br i1 %12, label %18, label %13

13:                                               ; preds = %3
  %14 = load ptr, ptr %8, align 8, !tbaa !131
  %15 = load ptr, ptr %1, align 8, !tbaa !358
  store ptr %15, ptr %6, align 8, !tbaa !358
  %16 = load ptr, ptr %2, align 8, !tbaa !358
  store ptr %16, ptr %7, align 8, !tbaa !358
  %17 = call noundef zeroext i1 @_ZNK4cvc58internal6theory2eq14EqualityEngine11areDisequalENS0_12NodeTemplateILb0EEES5_b(ptr noundef nonnull align 8 dereferenceable(1784) %14, ptr noundef nonnull %6, ptr noundef nonnull %7, i1 noundef zeroext false)
  %. = select i1 %17, i32 3, i32 5
  br label %18

18:                                               ; preds = %13, %3
  %.04 = phi i32 [ 2, %3 ], [ %., %13 ]
  ret i32 %.04
}